; ModuleID = '32/59.c'
source_filename = "32/59.c"
target datalayout = "e-m:e-p270:32:32-p271:32:32-p272:64:64-i64:64-f80:128-n8:16:32:64-S128"
target triple = "x86_64-pc-linux-gnu"

@.str = private unnamed_addr constant [3 x i8] c"%d\00", align 1
@.str.1 = private unnamed_addr constant [3 x i8] c"%s\00", align 1

; Function Attrs: noinline nounwind uwtable
define dso_local void @main() #0 {
  %1 = alloca i32, align 4
  %2 = alloca i32, align 4
  %3 = alloca i32, align 4
  %4 = alloca i32, align 4
  %5 = alloca i32, align 4
  %6 = alloca [100 x i8], align 16
  %7 = alloca [100 x i8], align 16
  %8 = alloca i8, align 1
  %9 = call i32 (i8*, ...) @__isoc99_scanf(i8* getelementptr inbounds ([3 x i8], [3 x i8]* @.str, i64 0, i64 0), i32* %1)
  store i32 1, i32* %2, align 4
  br label %10

10:                                               ; preds = %125, %0
  %11 = load i32, i32* %2, align 4
  %12 = load i32, i32* %1, align 4
  %13 = icmp sle i32 %11, %12
  br i1 %13, label %14, label %128

14:                                               ; preds = %10
  %15 = getelementptr inbounds [100 x i8], [100 x i8]* %6, i64 0, i64 0
  %16 = call i32 (i8*, ...) @__isoc99_scanf(i8* getelementptr inbounds ([3 x i8], [3 x i8]* @.str.1, i64 0, i64 0), i8* %15)
  %17 = getelementptr inbounds [100 x i8], [100 x i8]* %7, i64 0, i64 0
  %18 = call i32 (i8*, ...) @__isoc99_scanf(i8* getelementptr inbounds ([3 x i8], [3 x i8]* @.str.1, i64 0, i64 0), i8* %17)
  %19 = call i32 @getchar()
  %20 = trunc i32 %19 to i8
  store i8 %20, i8* %8, align 1
  %21 = getelementptr inbounds [100 x i8], [100 x i8]* %6, i64 0, i64 0
  %22 = call i64 @strlen(i8* %21) #3
  %23 = trunc i64 %22 to i32
  store i32 %23, i32* %3, align 4
  %24 = getelementptr inbounds [100 x i8], [100 x i8]* %7, i64 0, i64 0
  %25 = call i64 @strlen(i8* %24) #3
  %26 = trunc i64 %25 to i32
  store i32 %26, i32* %4, align 4
  %27 = load i32, i32* %4, align 4
  %28 = sub nsw i32 %27, 1
  store i32 %28, i32* %5, align 4
  br label %29

29:                                               ; preds = %119, %14
  %30 = load i32, i32* %5, align 4
  %31 = icmp sge i32 %30, 0
  br i1 %31, label %32, label %122

32:                                               ; preds = %29
  %33 = load i32, i32* %3, align 4
  %34 = load i32, i32* %4, align 4
  %35 = sub nsw i32 %33, %34
  %36 = load i32, i32* %5, align 4
  %37 = add nsw i32 %35, %36
  %38 = sext i32 %37 to i64
  %39 = getelementptr inbounds [100 x i8], [100 x i8]* %6, i64 0, i64 %38
  %40 = load i8, i8* %39, align 1
  %41 = sext i8 %40 to i32
  %42 = load i32, i32* %5, align 4
  %43 = sext i32 %42 to i64
  %44 = getelementptr inbounds [100 x i8], [100 x i8]* %7, i64 0, i64 %43
  %45 = load i8, i8* %44, align 1
  %46 = sext i8 %45 to i32
  %47 = icmp slt i32 %41, %46
  br i1 %47, label %48, label %93

48:                                               ; preds = %32
  %49 = load i32, i32* %3, align 4
  %50 = load i32, i32* %4, align 4
  %51 = sub nsw i32 %49, %50
  %52 = load i32, i32* %5, align 4
  %53 = add nsw i32 %51, %52
  %54 = sext i32 %53 to i64
  %55 = getelementptr inbounds [100 x i8], [100 x i8]* %6, i64 0, i64 %54
  %56 = load i8, i8* %55, align 1
  %57 = sext i8 %56 to i32
  %58 = add nsw i32 58, %57
  %59 = load i32, i32* %5, align 4
  %60 = sext i32 %59 to i64
  %61 = getelementptr inbounds [100 x i8], [100 x i8]* %7, i64 0, i64 %60
  %62 = load i8, i8* %61, align 1
  %63 = sext i8 %62 to i32
  %64 = sub nsw i32 %58, %63
  %65 = trunc i32 %64 to i8
  %66 = load i32, i32* %3, align 4
  %67 = load i32, i32* %4, align 4
  %68 = sub nsw i32 %66, %67
  %69 = load i32, i32* %5, align 4
  %70 = add nsw i32 %68, %69
  %71 = sext i32 %70 to i64
  %72 = getelementptr inbounds [100 x i8], [100 x i8]* %6, i64 0, i64 %71
  store i8 %65, i8* %72, align 1
  %73 = load i32, i32* %3, align 4
  %74 = load i32, i32* %4, align 4
  %75 = sub nsw i32 %73, %74
  %76 = load i32, i32* %5, align 4
  %77 = add nsw i32 %75, %76
  %78 = sub nsw i32 %77, 1
  %79 = sext i32 %78 to i64
  %80 = getelementptr inbounds [100 x i8], [100 x i8]* %6, i64 0, i64 %79
  %81 = load i8, i8* %80, align 1
  %82 = sext i8 %81 to i32
  %83 = sub nsw i32 %82, 1
  %84 = trunc i32 %83 to i8
  %85 = load i32, i32* %3, align 4
  %86 = load i32, i32* %4, align 4
  %87 = sub nsw i32 %85, %86
  %88 = load i32, i32* %5, align 4
  %89 = add nsw i32 %87, %88
  %90 = sub nsw i32 %89, 1
  %91 = sext i32 %90 to i64
  %92 = getelementptr inbounds [100 x i8], [100 x i8]* %6, i64 0, i64 %91
  store i8 %84, i8* %92, align 1
  br label %118

93:                                               ; preds = %32
  %94 = load i32, i32* %3, align 4
  %95 = load i32, i32* %4, align 4
  %96 = sub nsw i32 %94, %95
  %97 = load i32, i32* %5, align 4
  %98 = add nsw i32 %96, %97
  %99 = sext i32 %98 to i64
  %100 = getelementptr inbounds [100 x i8], [100 x i8]* %6, i64 0, i64 %99
  %101 = load i8, i8* %100, align 1
  %102 = sext i8 %101 to i32
  %103 = add nsw i32 48, %102
  %104 = load i32, i32* %5, align 4
  %105 = sext i32 %104 to i64
  %106 = getelementptr inbounds [100 x i8], [100 x i8]* %7, i64 0, i64 %105
  %107 = load i8, i8* %106, align 1
  %108 = sext i8 %107 to i32
  %109 = sub nsw i32 %103, %108
  %110 = trunc i32 %109 to i8
  %111 = load i32, i32* %3, align 4
  %112 = load i32, i32* %4, align 4
  %113 = sub nsw i32 %111, %112
  %114 = load i32, i32* %5, align 4
  %115 = add nsw i32 %113, %114
  %116 = sext i32 %115 to i64
  %117 = getelementptr inbounds [100 x i8], [100 x i8]* %6, i64 0, i64 %116
  store i8 %110, i8* %117, align 1
  br label %118

118:                                              ; preds = %93, %48
  br label %119

119:                                              ; preds = %118
  %120 = load i32, i32* %5, align 4
  %121 = add nsw i32 %120, -1
  store i32 %121, i32* %5, align 4
  br label %29

122:                                              ; preds = %29
  %123 = getelementptr inbounds [100 x i8], [100 x i8]* %6, i64 0, i64 0
  %124 = call i32 @puts(i8* %123)
  br label %125

125:                                              ; preds = %122
  %126 = load i32, i32* %2, align 4
  %127 = add nsw i32 %126, 1
  store i32 %127, i32* %2, align 4
  br label %10

128:                                              ; preds = %10
  ret void
}

declare dso_local i32 @__isoc99_scanf(i8*, ...) #1

declare dso_local i32 @getchar() #1

; Function Attrs: nounwind readonly
declare dso_local i64 @strlen(i8*) #2

declare dso_local i32 @puts(i8*) #1


!llvm.module.flags = !{!0}
!llvm.ident = !{!1}

!0 = !{i32 1, !"wchar_size", i32 4}
!1 = !{!"clang version 10.0.0-4ubuntu1 "}
